target datalayout = "e-m:e-p270:32:32-p271:32:32-p272:64:64-i64:64-i128:128-f80:128-n8:16:32:64-S128"
target triple = "x86_64-unknown-linux-gnu"

%"class.std::__cxx11::basic_string" = type { %"struct.std::__cxx11::basic_string<char>::_Alloc_hider", i64, %union.anon }
%"struct.std::__cxx11::basic_string<char>::_Alloc_hider" = type { ptr }
%union.anon = type { i64, [8 x i8] }
%"class.proxygen::ProxyStatus" = type <{ ptr, %"struct.proxygen::StructuredHeaders::ParameterisedIdentifier", i32, [4 x i8] }>
%"struct.proxygen::StructuredHeaders::ParameterisedIdentifier" = type { %"class.std::__cxx11::basic_string", %"class.std::unordered_map" }
%"class.std::unordered_map" = type { %"class.std::_Hashtable" }
%"class.std::_Hashtable" = type { ptr, i64, %"struct.std::__detail::_Hash_node_base", i64, %"struct.std::__detail::_Prime_rehash_policy", ptr }
%"struct.std::__detail::_Hash_node_base" = type { ptr }
%"struct.std::__detail::_Prime_rehash_policy" = type { float, i64 }

; Function Attrs: mustprogress uwtable
define void @_ZN8proxygen11ProxyStatus13setStatusTypeENS_10StatusTypeE(ptr noundef nonnull align 8 dereferenceable(100) %this, i32 noundef %statusType) #1 align 2 {
entry:
  %this.addr = alloca ptr, align 8
  %statusType.addr = alloca i32, align 4
  store ptr %this, ptr %this.addr, align 8
  store i32 %statusType, ptr %statusType.addr, align 4
  %this1 = load ptr, ptr %this.addr, align 8
  %0 = load i32, ptr %statusType.addr, align 4
  %statusType_ = getelementptr inbounds %"class.proxygen::ProxyStatus", ptr %this1, i32 0, i32 2
  store i32 %0, ptr %statusType_, align 8
  %statusType_2 = getelementptr inbounds %"class.proxygen::ProxyStatus", ptr %this1, i32 0, i32 2
  %1 = load i32, ptr %statusType_2, align 8
  %call = call noundef ptr @_ZN8proxygen19getStatusTypeStringENS_10StatusTypeE(i32 noundef %1)
  %pIdent_ = getelementptr inbounds %"class.proxygen::ProxyStatus", ptr %this1, i32 0, i32 1
  %identifier = getelementptr inbounds %"struct.proxygen::StructuredHeaders::ParameterisedIdentifier", ptr %pIdent_, i32 0, i32 0
  %call3 = call noundef nonnull align 8 dereferenceable(32) ptr @_ZNSt7__cxx1112basic_stringIcSt11char_traitsIcESaIcEEaSEPKc(ptr noundef nonnull align 8 dereferenceable(32) %identifier, ptr noundef %call)
  ret void
}