; Function Attrs: mustprogress uwtable
define void @_ZN8proxygen11ProxyStatus13setStatusTypeENS_10StatusTypeE(ptr noundef nonnull align 8 dereferenceable(100) %this, i32 noundef %statusType) local_unnamed_addr #0 align 2 {
entry:
  %statusType_ = getelementptr inbounds i8, ptr %this, i64 96
  store i32 %statusType, ptr %statusType_, align 8
  %call = tail call noundef ptr @_ZN8proxygen19getStatusTypeStringENS_10StatusTypeE(i32 noundef %statusType)
  %pIdent_ = getelementptr inbounds i8, ptr %this, i64 8
  %call3 = tail call noundef nonnull align 8 dereferenceable(32) ptr @_ZNSt7__cxx1112basic_stringIcSt11char_traitsIcESaIcEEaSEPKc(ptr noundef nonnull align 8 dereferenceable(32) %pIdent_, ptr noundef %call)
  ret void
}